target datalayout = "e-m:e-p270:32:32-p271:32:32-p272:64:64-i64:64-i128:128-f80:128-n8:16:32:64-S128"
target triple = "x86_64-pc-linux-gnu"

%class.QString = type { ptr }

@.str.39 = private unnamed_addr constant [197 x i8] c"Create a new layer populated with a point sampling of the current mesh; samples are generated in a randomly uniform way, or with a distribution biased by the per-vertex quality values of the mesh.\00", align 1
@.str.41 = private unnamed_addr constant [154 x i8] c"Create a new layer populated with a subsampling of the vertices of the current mesh; the subsampling is driven by a simple one-per-gridded cell strategy.\00", align 1
@.str.42 = private unnamed_addr constant [186 x i8] c"Create a new layer populated with a simplified version of the current point cloud. The simplification is performed by subsampling the original point cloud using a Poisson Disk strategy.\00", align 1
@.str.44 = private unnamed_addr constant [200 x i8] c"Compute the Hausdorff Distance between two layers, sampling one of the two and finding for each sample the closest point over the other mesh. Distance is stored in vertex quality of the sampled mesh.\00", align 1
@.str.45 = private unnamed_addr constant [147 x i8] c"Compute the signed/unsigned (per vertex) distance between a mesh/pointcloud and a reference mesh/pointcloud. Distance is stored in vertex quality.\00", align 1
@.str.46 = private unnamed_addr constant [111 x i8] c"Create a new layer with a point sampling of the current mesh, a sample for each texel of the mesh is generated\00", align 1
@.str.49 = private unnamed_addr constant [222 x i8] c"Given a Mesh <b>M</b> and a Pointset <b>P</b>, The filter project each vertex of P over M and color M according to the geodesic distance from these projected points. Projection and coloring are done on a per vertex basis.\00", align 1
@.str.50 = private unnamed_addr constant [223 x i8] c"Given a Mesh <b>M</b> and a Pointset <b>P</b>, The filter project each vertex of P over M and color M according to the Euclidean distance from these projected points. Projection and coloring are done on a per vertex basis.\00", align 1
@.str.51 = private unnamed_addr constant [227 x i8] c"The bounding box is recursively partitioned in a octree style, center of bbox are considered, when the center is nearer to the surface than a given threshold it is projected on it. It works also for building offsetted samples.\00", align 1
@.str.52 = private unnamed_addr constant [19 x i8] c"unknown filter!!!!\00", align 1

; Function Attrs: mustprogress uwtable
define linkonce_odr void @_ZN7QStringC2EPKc(ptr noundef nonnull align 8 dereferenceable(8) %0, ptr noundef %1) unnamed_addr #5 comdat align 2 {
  %3 = alloca ptr, align 8
  %4 = alloca ptr, align 8
  store ptr %0, ptr %3, align 8
  store ptr %1, ptr %4, align 8
  %5 = load ptr, ptr %3, align 8
  %6 = getelementptr inbounds %class.QString, ptr %5, i32 0, i32 0
  %7 = load ptr, ptr %4, align 8
  %8 = load ptr, ptr %4, align 8
  %9 = icmp ne ptr %8, null
  br i1 %9, label %10, label %14

10:                                               ; preds = %2
  %11 = load ptr, ptr %4, align 8
  %12 = call i64 @strlen(ptr noundef %11) #25
  %13 = trunc i64 %12 to i32
  br label %15

14:                                               ; preds = %2
  br label %15

15:                                               ; preds = %14, %10
  %16 = phi i32 [ %13, %10 ], [ -1, %14 ]
  %17 = call noundef ptr @_ZN7QString16fromAscii_helperEPKci(ptr noundef %7, i32 noundef %16)
  store ptr %17, ptr %6, align 8
  ret void
}

; Function Attrs: mustprogress uwtable
define void @_ZNK17FilterDocSampling10filterInfoEi(ptr dead_on_unwind noalias writable sret(%class.QString) align 8 %0, ptr noundef nonnull align 8 dereferenceable(80) %1, i32 noundef %2) unnamed_addr #5 align 2 {
  %4 = alloca ptr, align 8
  %5 = alloca ptr, align 8
  %6 = alloca i32, align 4
  store ptr %0, ptr %4, align 8
  store ptr %1, ptr %5, align 8
  store i32 %2, ptr %6, align 4
  %7 = load i32, ptr %6, align 4
  switch i32 %7, label %22 [
    i32 0, label %8
    i32 1, label %9
    i32 4, label %10
    i32 3, label %11
    i32 13, label %12
    i32 12, label %13
    i32 5, label %14
    i32 6, label %15
    i32 7, label %16
    i32 8, label %17
    i32 9, label %18
    i32 10, label %19
    i32 11, label %20
    i32 2, label %21
  ]

8:                                                ; preds = %3
  call void @_ZN7QStringC2EPKc(ptr noundef nonnull align 8 dereferenceable(8) %0, ptr noundef @.str.38)
  br label %23

9:                                                ; preds = %3
  call void @_ZN7QStringC2EPKc(ptr noundef nonnull align 8 dereferenceable(8) %0, ptr noundef @.str.39)
  br label %23

10:                                               ; preds = %3
  call void @_ZN7QStringC2EPKc(ptr noundef nonnull align 8 dereferenceable(8) %0, ptr noundef @.str.40)
  br label %23

11:                                               ; preds = %3
  call void @_ZN7QStringC2EPKc(ptr noundef nonnull align 8 dereferenceable(8) %0, ptr noundef @.str.41)
  br label %23

12:                                               ; preds = %3
  call void @_ZN7QStringC2EPKc(ptr noundef nonnull align 8 dereferenceable(8) %0, ptr noundef @.str.42)
  br label %23

13:                                               ; preds = %3
  call void @_ZN7QStringC2EPKc(ptr noundef nonnull align 8 dereferenceable(8) %0, ptr noundef @.str.43)
  br label %23

14:                                               ; preds = %3
  call void @_ZN7QStringC2EPKc(ptr noundef nonnull align 8 dereferenceable(8) %0, ptr noundef @.str.44)
  br label %23

15:                                               ; preds = %3
  call void @_ZN7QStringC2EPKc(ptr noundef nonnull align 8 dereferenceable(8) %0, ptr noundef @.str.45)
  br label %23

16:                                               ; preds = %3
  call void @_ZN7QStringC2EPKc(ptr noundef nonnull align 8 dereferenceable(8) %0, ptr noundef @.str.46)
  br label %23

17:                                               ; preds = %3
  call void @_ZN7QStringC2EPKc(ptr noundef nonnull align 8 dereferenceable(8) %0, ptr noundef @.str.47)
  br label %23

18:                                               ; preds = %3
  call void @_ZN7QStringC2EPKc(ptr noundef nonnull align 8 dereferenceable(8) %0, ptr noundef @.str.48)
  br label %23

19:                                               ; preds = %3
  call void @_ZN7QStringC2EPKc(ptr noundef nonnull align 8 dereferenceable(8) %0, ptr noundef @.str.49)
  br label %23

20:                                               ; preds = %3
  call void @_ZN7QStringC2EPKc(ptr noundef nonnull align 8 dereferenceable(8) %0, ptr noundef @.str.50)
  br label %23

21:                                               ; preds = %3
  call void @_ZN7QStringC2EPKc(ptr noundef nonnull align 8 dereferenceable(8) %0, ptr noundef @.str.51)
  br label %23

22:                                               ; preds = %3
  call void @_ZN7QStringC2EPKc(ptr noundef nonnull align 8 dereferenceable(8) %0, ptr noundef @.str.52)
  br label %23

23:                                               ; preds = %22, %21, %20, %19, %18, %17, %16, %15, %14, %13, %12, %11, %10, %9, %8
  ret void
}