; Function Attrs: mustprogress uwtable
define void @_ZNK17FilterDocSampling10filterInfoEi(ptr dead_on_unwind noalias nocapture writable writeonly sret(%class.QString) align 8 %0, ptr nocapture nonnull readnone align 8 %1, i32 noundef %2) unnamed_addr #9 align 2 {
  switch i32 %2, label %32 [
    i32 0, label %4
    i32 1, label %6
    i32 4, label %8
    i32 3, label %10
    i32 13, label %12
    i32 12, label %14
    i32 5, label %16
    i32 6, label %18
    i32 7, label %20
    i32 8, label %22
    i32 9, label %24
    i32 10, label %26
    i32 11, label %28
    i32 2, label %30
  ]

4:                                                ; preds = %3
  %5 = tail call noundef ptr @_ZN7QString16fromAscii_helperEPKci(ptr noundef nonnull @.str.38, i32 noundef 269)
  br label %34

6:                                                ; preds = %3
  %7 = tail call noundef ptr @_ZN7QString16fromAscii_helperEPKci(ptr noundef nonnull @.str.39, i32 noundef 196)
  br label %34

8:                                                ; preds = %3
  %9 = tail call noundef ptr @_ZN7QString16fromAscii_helperEPKci(ptr noundef nonnull @.str.40, i32 noundef 245)
  br label %34

10:                                               ; preds = %3
  %11 = tail call noundef ptr @_ZN7QString16fromAscii_helperEPKci(ptr noundef nonnull @.str.41, i32 noundef 153)
  br label %34

12:                                               ; preds = %3
  %13 = tail call noundef ptr @_ZN7QString16fromAscii_helperEPKci(ptr noundef nonnull @.str.42, i32 noundef 185)
  br label %34

14:                                               ; preds = %3
  %15 = tail call noundef ptr @_ZN7QString16fromAscii_helperEPKci(ptr noundef nonnull @.str.43, i32 noundef 336)
  br label %34

16:                                               ; preds = %3
  %17 = tail call noundef ptr @_ZN7QString16fromAscii_helperEPKci(ptr noundef nonnull @.str.44, i32 noundef 199)
  br label %34

18:                                               ; preds = %3
  %19 = tail call noundef ptr @_ZN7QString16fromAscii_helperEPKci(ptr noundef nonnull @.str.45, i32 noundef 146)
  br label %34

20:                                               ; preds = %3
  %21 = tail call noundef ptr @_ZN7QString16fromAscii_helperEPKci(ptr noundef nonnull @.str.46, i32 noundef 110)
  br label %34

22:                                               ; preds = %3
  %23 = tail call noundef ptr @_ZN7QString16fromAscii_helperEPKci(ptr noundef nonnull @.str.47, i32 noundef 428)
  br label %34

24:                                               ; preds = %3
  %25 = tail call noundef ptr @_ZN7QString16fromAscii_helperEPKci(ptr noundef nonnull @.str.48, i32 noundef 310)
  br label %34

26:                                               ; preds = %3
  %27 = tail call noundef ptr @_ZN7QString16fromAscii_helperEPKci(ptr noundef nonnull @.str.49, i32 noundef 221)
  br label %34

28:                                               ; preds = %3
  %29 = tail call noundef ptr @_ZN7QString16fromAscii_helperEPKci(ptr noundef nonnull @.str.50, i32 noundef 222)
  br label %34

30:                                               ; preds = %3
  %31 = tail call noundef ptr @_ZN7QString16fromAscii_helperEPKci(ptr noundef nonnull @.str.51, i32 noundef 226)
  br label %34

32:                                               ; preds = %3
  %33 = tail call noundef ptr @_ZN7QString16fromAscii_helperEPKci(ptr noundef nonnull @.str.52, i32 noundef 18)
  br label %34

34:                                               ; preds = %32, %30, %28, %26, %24, %22, %20, %18, %16, %14, %12, %10, %8, %6, %4
  %.sink = phi ptr [ %33, %32 ], [ %31, %30 ], [ %29, %28 ], [ %27, %26 ], [ %25, %24 ], [ %23, %22 ], [ %21, %20 ], [ %19, %18 ], [ %17, %16 ], [ %15, %14 ], [ %13, %12 ], [ %11, %10 ], [ %9, %8 ], [ %7, %6 ], [ %5, %4 ]
  store ptr %.sink, ptr %0, align 8
  ret void
}